; ModuleID = '17/705.c'
source_filename = "17/705.c"
target datalayout = "e-m:e-p270:32:32-p271:32:32-p272:64:64-i64:64-f80:128-n8:16:32:64-S128"
target triple = "x86_64-pc-linux-gnu"

%struct._IO_FILE = type { i32, i8*, i8*, i8*, i8*, i8*, i8*, i8*, i8*, i8*, i8*, i8*, %struct._IO_marker*, %struct._IO_FILE*, i32, i32, i64, i16, i8, [1 x i8], i8*, i64, %struct._IO_codecvt*, %struct._IO_wide_data*, %struct._IO_FILE*, i8*, i64, i32, [20 x i8] }
%struct._IO_marker = type opaque
%struct._IO_codecvt = type opaque
%struct._IO_wide_data = type opaque

@stdin = external dso_local global %struct._IO_FILE*, align 8

; Function Attrs: noinline nounwind uwtable
define dso_local void @main() #0 {
  %1 = alloca [100 x i8], align 16
  %2 = alloca [100 x i8], align 16
  %3 = alloca i32, align 4
  %4 = alloca i32, align 4
  %5 = alloca [100 x i32], align 16
  %6 = alloca [100 x i32], align 16
  %7 = alloca i32, align 4
  %8 = alloca i32, align 4
  %9 = alloca i32, align 4
  %10 = alloca i32, align 4
  %11 = alloca i32, align 4
  %12 = alloca i32, align 4
  %13 = alloca i32, align 4
  %14 = alloca i32, align 4
  br label %15

15:                                               ; preds = %0, %169
  %16 = getelementptr inbounds [100 x i8], [100 x i8]* %1, i64 0, i64 0
  %17 = call i32 (i8*, ...) bitcast (i32 (...)* @gets to i32 (i8*, ...)*)(i8* %16)
  %18 = load %struct._IO_FILE*, %struct._IO_FILE** @stdin, align 8
  %19 = call i32 @feof(%struct._IO_FILE* %18) #4
  %20 = icmp ne i32 %19, 0
  br i1 %20, label %21, label %22

21:                                               ; preds = %15
  br label %172

22:                                               ; preds = %15
  %23 = getelementptr inbounds [100 x i8], [100 x i8]* %1, i64 0, i64 0
  %24 = call i32 @puts(i8* %23)
  %25 = getelementptr inbounds [100 x i8], [100 x i8]* %1, i64 0, i64 0
  %26 = call i64 @strlen(i8* %25) #5
  %27 = trunc i64 %26 to i32
  store i32 %27, i32* %4, align 4
  store i32 0, i32* %7, align 4
  store i32 0, i32* %8, align 4
  store i32 0, i32* %3, align 4
  br label %28

28:                                               ; preds = %67, %22
  %29 = load i32, i32* %3, align 4
  %30 = load i32, i32* %4, align 4
  %31 = sub nsw i32 %30, 1
  %32 = icmp sle i32 %29, %31
  br i1 %32, label %33, label %70

33:                                               ; preds = %28
  %34 = load i32, i32* %3, align 4
  %35 = sext i32 %34 to i64
  %36 = getelementptr inbounds [100 x i8], [100 x i8]* %1, i64 0, i64 %35
  %37 = load i8, i8* %36, align 1
  %38 = sext i8 %37 to i32
  %39 = icmp eq i32 %38, 40
  br i1 %39, label %40, label %47

40:                                               ; preds = %33
  %41 = load i32, i32* %3, align 4
  %42 = load i32, i32* %7, align 4
  %43 = sext i32 %42 to i64
  %44 = getelementptr inbounds [100 x i32], [100 x i32]* %5, i64 0, i64 %43
  store i32 %41, i32* %44, align 4
  %45 = load i32, i32* %7, align 4
  %46 = add nsw i32 %45, 1
  store i32 %46, i32* %7, align 4
  br label %66

47:                                               ; preds = %33
  %48 = load i32, i32* %3, align 4
  %49 = sext i32 %48 to i64
  %50 = getelementptr inbounds [100 x i8], [100 x i8]* %1, i64 0, i64 %49
  %51 = load i8, i8* %50, align 1
  %52 = sext i8 %51 to i32
  %53 = icmp eq i32 %52, 41
  br i1 %53, label %54, label %61

54:                                               ; preds = %47
  %55 = load i32, i32* %3, align 4
  %56 = load i32, i32* %8, align 4
  %57 = sext i32 %56 to i64
  %58 = getelementptr inbounds [100 x i32], [100 x i32]* %6, i64 0, i64 %57
  store i32 %55, i32* %58, align 4
  %59 = load i32, i32* %8, align 4
  %60 = add nsw i32 %59, 1
  store i32 %60, i32* %8, align 4
  br label %65

61:                                               ; preds = %47
  %62 = load i32, i32* %3, align 4
  %63 = sext i32 %62 to i64
  %64 = getelementptr inbounds [100 x i8], [100 x i8]* %2, i64 0, i64 %63
  store i8 32, i8* %64, align 1
  br label %65

65:                                               ; preds = %61, %54
  br label %66

66:                                               ; preds = %65, %40
  br label %67

67:                                               ; preds = %66
  %68 = load i32, i32* %3, align 4
  %69 = add nsw i32 %68, 1
  store i32 %69, i32* %3, align 4
  br label %28

70:                                               ; preds = %28
  %71 = load i32, i32* %7, align 4
  %72 = sext i32 %71 to i64
  %73 = getelementptr inbounds [100 x i32], [100 x i32]* %5, i64 0, i64 %72
  store i32 100, i32* %73, align 4
  %74 = load i32, i32* %8, align 4
  %75 = sext i32 %74 to i64
  %76 = getelementptr inbounds [100 x i32], [100 x i32]* %6, i64 0, i64 %75
  store i32 100, i32* %76, align 4
  %77 = load i32, i32* %4, align 4
  %78 = sext i32 %77 to i64
  %79 = getelementptr inbounds [100 x i8], [100 x i8]* %2, i64 0, i64 %78
  store i8 0, i8* %79, align 1
  store i32 1, i32* %11, align 4
  store i32 1, i32* %12, align 4
  %80 = load i32, i32* %7, align 4
  %81 = sub nsw i32 %80, 1
  store i32 %81, i32* %9, align 4
  br label %82

82:                                               ; preds = %122, %70
  %83 = load i32, i32* %9, align 4
  %84 = icmp sge i32 %83, 0
  br i1 %84, label %85, label %125

85:                                               ; preds = %82
  store i32 0, i32* %13, align 4
  br label %86

86:                                               ; preds = %96, %85
  %87 = load i32, i32* %13, align 4
  %88 = sext i32 %87 to i64
  %89 = getelementptr inbounds [100 x i32], [100 x i32]* %6, i64 0, i64 %88
  %90 = load i32, i32* %89, align 4
  %91 = load i32, i32* %9, align 4
  %92 = sext i32 %91 to i64
  %93 = getelementptr inbounds [100 x i32], [100 x i32]* %5, i64 0, i64 %92
  %94 = load i32, i32* %93, align 4
  %95 = icmp slt i32 %90, %94
  br i1 %95, label %96, label %99

96:                                               ; preds = %86
  %97 = load i32, i32* %13, align 4
  %98 = add nsw i32 %97, 1
  store i32 %98, i32* %13, align 4
  br label %86

99:                                               ; preds = %86
  %100 = load i32, i32* %11, align 4
  %101 = load i32, i32* %8, align 4
  %102 = load i32, i32* %13, align 4
  %103 = sub nsw i32 %101, %102
  %104 = icmp sgt i32 %100, %103
  br i1 %104, label %105, label %112

105:                                              ; preds = %99
  %106 = load i32, i32* %9, align 4
  %107 = sext i32 %106 to i64
  %108 = getelementptr inbounds [100 x i32], [100 x i32]* %5, i64 0, i64 %107
  %109 = load i32, i32* %108, align 4
  %110 = sext i32 %109 to i64
  %111 = getelementptr inbounds [100 x i8], [100 x i8]* %2, i64 0, i64 %110
  store i8 36, i8* %111, align 1
  br label %121

112:                                              ; preds = %99
  %113 = load i32, i32* %9, align 4
  %114 = sext i32 %113 to i64
  %115 = getelementptr inbounds [100 x i32], [100 x i32]* %5, i64 0, i64 %114
  %116 = load i32, i32* %115, align 4
  %117 = sext i32 %116 to i64
  %118 = getelementptr inbounds [100 x i8], [100 x i8]* %2, i64 0, i64 %117
  store i8 32, i8* %118, align 1
  %119 = load i32, i32* %11, align 4
  %120 = add nsw i32 %119, 1
  store i32 %120, i32* %11, align 4
  br label %121

121:                                              ; preds = %112, %105
  br label %122

122:                                              ; preds = %121
  %123 = load i32, i32* %9, align 4
  %124 = add nsw i32 %123, -1
  store i32 %124, i32* %9, align 4
  br label %82

125:                                              ; preds = %82
  store i32 0, i32* %10, align 4
  br label %126

126:                                              ; preds = %166, %125
  %127 = load i32, i32* %10, align 4
  %128 = load i32, i32* %8, align 4
  %129 = sub nsw i32 %128, 1
  %130 = icmp sle i32 %127, %129
  br i1 %130, label %131, label %169

131:                                              ; preds = %126
  store i32 0, i32* %14, align 4
  br label %132

132:                                              ; preds = %142, %131
  %133 = load i32, i32* %14, align 4
  %134 = sext i32 %133 to i64
  %135 = getelementptr inbounds [100 x i32], [100 x i32]* %5, i64 0, i64 %134
  %136 = load i32, i32* %135, align 4
  %137 = load i32, i32* %10, align 4
  %138 = sext i32 %137 to i64
  %139 = getelementptr inbounds [100 x i32], [100 x i32]* %6, i64 0, i64 %138
  %140 = load i32, i32* %139, align 4
  %141 = icmp slt i32 %136, %140
  br i1 %141, label %142, label %145

142:                                              ; preds = %132
  %143 = load i32, i32* %14, align 4
  %144 = add nsw i32 %143, 1
  store i32 %144, i32* %14, align 4
  br label %132

145:                                              ; preds = %132
  %146 = load i32, i32* %12, align 4
  %147 = load i32, i32* %14, align 4
  %148 = icmp sgt i32 %146, %147
  br i1 %148, label %149, label %156

149:                                              ; preds = %145
  %150 = load i32, i32* %10, align 4
  %151 = sext i32 %150 to i64
  %152 = getelementptr inbounds [100 x i32], [100 x i32]* %6, i64 0, i64 %151
  %153 = load i32, i32* %152, align 4
  %154 = sext i32 %153 to i64
  %155 = getelementptr inbounds [100 x i8], [100 x i8]* %2, i64 0, i64 %154
  store i8 63, i8* %155, align 1
  br label %165

156:                                              ; preds = %145
  %157 = load i32, i32* %10, align 4
  %158 = sext i32 %157 to i64
  %159 = getelementptr inbounds [100 x i32], [100 x i32]* %6, i64 0, i64 %158
  %160 = load i32, i32* %159, align 4
  %161 = sext i32 %160 to i64
  %162 = getelementptr inbounds [100 x i8], [100 x i8]* %2, i64 0, i64 %161
  store i8 32, i8* %162, align 1
  %163 = load i32, i32* %12, align 4
  %164 = add nsw i32 %163, 1
  store i32 %164, i32* %12, align 4
  br label %165

165:                                              ; preds = %156, %149
  br label %166

166:                                              ; preds = %165
  %167 = load i32, i32* %10, align 4
  %168 = add nsw i32 %167, 1
  store i32 %168, i32* %10, align 4
  br label %126

169:                                              ; preds = %126
  %170 = getelementptr inbounds [100 x i8], [100 x i8]* %2, i64 0, i64 0
  %171 = call i32 @puts(i8* %170)
  br label %15

172:                                              ; preds = %21
  ret void
}

declare dso_local i32 @gets(...) #1

; Function Attrs: nounwind
declare dso_local i32 @feof(%struct._IO_FILE*) #2

declare dso_local i32 @puts(i8*) #1

; Function Attrs: nounwind readonly
declare dso_local i64 @strlen(i8*) #3


!llvm.module.flags = !{!0}
!llvm.ident = !{!1}

!0 = !{i32 1, !"wchar_size", i32 4}
!1 = !{!"clang version 10.0.0-4ubuntu1 "}
